; Function Attrs: mustprogress uwtable
define void @_ZN4base8FilePath31StripTrailingSeparatorsInternalEv(ptr noundef nonnull align 8 dereferenceable(32) %0) local_unnamed_addr #1 align 2 {
  %2 = getelementptr inbounds nuw i8, ptr %0, i64 8
  %3 = load i64, ptr %2, align 8, !tbaa !9
  %4 = icmp ugt i64 %3, 1
  br i1 %4, label %.lr.ph, label %.critedge

.lr.ph:                                           ; preds = %1
  %5 = load i64, ptr @_ZN4base8FilePath17kSeparatorsLengthE, align 8, !tbaa !14
  %6 = add i64 %5, -1
  %.not7.not.i = icmp eq i64 %6, 0
  br i1 %.not7.not.i, label %.critedge, label %.lr.ph.i.preheader

.lr.ph.i.preheader:                               ; preds = %.lr.ph, %_ZN4base8FilePath11IsSeparatorEc.exit18
  %.023 = phi i64 [ %7, %_ZN4base8FilePath11IsSeparatorEc.exit18 ], [ %3, %.lr.ph ]
  %.01122 = phi i64 [ %.1, %_ZN4base8FilePath11IsSeparatorEc.exit18 ], [ -1, %.lr.ph ]
  %7 = add i64 %.023, -1
  %8 = load ptr, ptr %0, align 8, !tbaa !13
  %9 = getelementptr inbounds nuw i8, ptr %8, i64 %7
  %10 = load i8, ptr %9, align 1, !tbaa !12
  br label %.lr.ph.i

11:                                               ; preds = %.lr.ph.i
  %12 = add nuw i64 %.058.i, 1
  %exitcond.not.i = icmp eq i64 %12, %6
  br i1 %exitcond.not.i, label %.critedge, label %.lr.ph.i, !llvm.loop !15

.lr.ph.i:                                         ; preds = %.lr.ph.i.preheader, %11
  %.058.i = phi i64 [ %12, %11 ], [ 0, %.lr.ph.i.preheader ]
  %13 = getelementptr inbounds nuw [0 x i8], ptr @_ZN4base8FilePath11kSeparatorsE, i64 0, i64 %.058.i
  %14 = load i8, ptr %13, align 1, !tbaa !12
  %15 = icmp eq i8 %10, %14
  br i1 %15, label %_ZN4base8FilePath11IsSeparatorEc.exit, label %11

.critedge:                                        ; preds = %_ZN4base8FilePath11IsSeparatorEc.exit18, %11, %1, %.lr.ph
  ret void

_ZN4base8FilePath11IsSeparatorEc.exit:            ; preds = %.lr.ph.i
  %.not = icmp ne i64 %.023, 2
  %16 = icmp eq i64 %.01122, 3
  %or.cond = select i1 %.not, i1 true, i1 %16
  br i1 %or.cond, label %_ZN4base8FilePath11IsSeparatorEc.exit18.thread, label %17

17:                                               ; preds = %_ZN4base8FilePath11IsSeparatorEc.exit
  %18 = load i8, ptr %8, align 1, !tbaa !12
  br label %.lr.ph.i14

19:                                               ; preds = %.lr.ph.i14
  %20 = add nuw i64 %.058.i15, 1
  %exitcond.not.i16 = icmp eq i64 %20, %6
  br i1 %exitcond.not.i16, label %_ZN4base8FilePath11IsSeparatorEc.exit18.thread, label %.lr.ph.i14, !llvm.loop !15

.lr.ph.i14:                                       ; preds = %17, %19
  %.058.i15 = phi i64 [ %20, %19 ], [ 0, %17 ]
  %21 = getelementptr inbounds nuw [0 x i8], ptr @_ZN4base8FilePath11kSeparatorsE, i64 0, i64 %.058.i15
  %22 = load i8, ptr %21, align 1, !tbaa !12
  %23 = icmp eq i8 %18, %22
  br i1 %23, label %_ZN4base8FilePath11IsSeparatorEc.exit18, label %19

_ZN4base8FilePath11IsSeparatorEc.exit18.thread:   ; preds = %19, %_ZN4base8FilePath11IsSeparatorEc.exit
  tail call void @_ZNSt7__cxx1112basic_stringIcSt11char_traitsIcESaIcEE6resizeEmc(ptr noundef nonnull align 8 dereferenceable(32) %0, i64 noundef %7, i8 noundef signext 0)
  br label %_ZN4base8FilePath11IsSeparatorEc.exit18

_ZN4base8FilePath11IsSeparatorEc.exit18:          ; preds = %.lr.ph.i14, %_ZN4base8FilePath11IsSeparatorEc.exit18.thread
  %.1 = phi i64 [ %.023, %_ZN4base8FilePath11IsSeparatorEc.exit18.thread ], [ %.01122, %.lr.ph.i14 ]
  %24 = icmp ugt i64 %7, 1
  br i1 %24, label %.lr.ph.i.preheader, label %.critedge, !llvm.loop !32
}